target datalayout = "e-m:e-p270:32:32-p271:32:32-p272:64:64-i64:64-i128:128-f80:128-n8:16:32:64-S128"
target triple = "x86_64-pc-linux-gnu"

%"class.sat::ddfw" = type <{ %"struct.sat::ddfw::config", %class.reslimit, %class.vector.1, %class.svector.2, %class.svector.4, %class.svector.6, %class.svector.6, %class.svector.8, i32, [4 x i8], %class.vector.10, %class.svector.11, %class.svector.11, i32, i32, i32, [4 x i8], %class.indexed_uint_set, %class.indexed_uint_set, %class.random_gen, [4 x i8], i64, i32, i32, i32, i32, i64, i64, i64, i64, i64, i32, i32, %class.u_map, %class.stopwatch, %class.svector.11, i8, [7 x i8], %class.scoped_ptr, %"class.std::function", i32, [4 x i8], %class.tracked_uint_set, %class.svector.11, i8, i8, [6 x i8] }>
%"struct.sat::ddfw::config" = type { i32, i32, i32, i32, i32, i32, double }
%class.reslimit = type { %"struct.std::atomic", i8, i64, i64, %class.svector, %class.ptr_vector }
%"struct.std::atomic" = type { %"struct.std::__atomic_base" }
%"struct.std::__atomic_base" = type { i32 }
%class.svector = type { %class.vector }
%class.vector = type { ptr }
%class.ptr_vector = type { %class.vector.0 }
%class.vector.0 = type { ptr }
%class.vector.1 = type { ptr }
%class.svector.2 = type { %class.vector.3 }
%class.vector.3 = type { ptr }
%class.svector.4 = type { %class.vector.5 }
%class.vector.5 = type { ptr }
%class.svector.6 = type { %class.vector.7 }
%class.vector.7 = type { ptr }
%class.svector.8 = type { %class.vector.9 }
%class.vector.9 = type { ptr }
%class.vector.10 = type { ptr }
%class.indexed_uint_set = type { i32, %class.svector.11, %class.svector.11 }
%class.random_gen = type { i32 }
%class.u_map = type { %class.map }
%class.map = type { %class.table2map }
%class.table2map = type { %class.core_hashtable }
%class.core_hashtable = type <{ ptr, i32, i32, i32, [4 x i8] }>
%class.stopwatch = type <{ %"class.std::chrono::time_point", %"class.std::chrono::duration", i8, [7 x i8] }>
%"class.std::chrono::time_point" = type { %"class.std::chrono::duration" }
%"class.std::chrono::duration" = type { i64 }
%class.scoped_ptr = type { ptr }
%"class.std::function" = type { %"class.std::_Function_base", ptr }
%"class.std::_Function_base" = type { %"union.std::_Any_data", ptr }
%"union.std::_Any_data" = type { %"union.std::_Nocopy_types" }
%"union.std::_Nocopy_types" = type { { i64, i64 } }
%class.tracked_uint_set = type { %class.svector.13, %class.svector.11 }
%class.svector.13 = type { %class.vector.14 }
%class.vector.14 = type { ptr }
%class.svector.11 = type { %class.vector.12 }
%class.vector.12 = type { ptr }

@.str.18 = private unnamed_addr constant [15 x i8] c"sls-ddfw-flips\00", align 1
@.str.19 = private unnamed_addr constant [18 x i8] c"sls-ddfw-restarts\00", align 1
@.str.20 = private unnamed_addr constant [17 x i8] c"sls-ddfw-reinits\00", align 1
@.str.21 = private unnamed_addr constant [16 x i8] c"sls-ddfw-shifts\00", align 1

; Function Attrs: mustprogress uwtable
define hidden void @_ZNK3sat4ddfw18collect_statisticsER10statistics(ptr noundef nonnull align 8 dereferenceable(434) %0, ptr noundef nonnull align 8 dereferenceable(16) %1) #6 align 2 {
  %3 = alloca ptr, align 8
  %4 = alloca ptr, align 8
  store ptr %0, ptr %3, align 8, !tbaa !3
  store ptr %1, ptr %4, align 8, !tbaa !231
  %5 = load ptr, ptr %3, align 8
  %6 = load ptr, ptr %4, align 8, !tbaa !231
  %7 = getelementptr inbounds nuw %"class.sat::ddfw", ptr %5, i32 0, i32 28
  %8 = load i64, ptr %7, align 8, !tbaa !103
  %9 = uitofp i64 %8 to double
  call void @_ZN10statistics6updateEPKcd(ptr noundef nonnull align 8 dereferenceable(16) %6, ptr noundef @.str.18, double noundef %9)
  %10 = load ptr, ptr %4, align 8, !tbaa !231
  %11 = getelementptr inbounds nuw %"class.sat::ddfw", ptr %5, i32 0, i32 23
  %12 = load i32, ptr %11, align 4, !tbaa !100
  call void @_ZN10statistics6updateEPKcj(ptr noundef nonnull align 8 dereferenceable(16) %10, ptr noundef @.str.19, i32 noundef %12)
  %13 = load ptr, ptr %4, align 8, !tbaa !231
  %14 = getelementptr inbounds nuw %"class.sat::ddfw", ptr %5, i32 0, i32 24
  %15 = load i32, ptr %14, align 8, !tbaa !97
  call void @_ZN10statistics6updateEPKcj(ptr noundef nonnull align 8 dereferenceable(16) %13, ptr noundef @.str.20, i32 noundef %15)
  %16 = load ptr, ptr %4, align 8, !tbaa !231
  %17 = getelementptr inbounds nuw %"class.sat::ddfw", ptr %5, i32 0, i32 30
  %18 = load i64, ptr %17, align 8, !tbaa !105
  %19 = uitofp i64 %18 to double
  call void @_ZN10statistics6updateEPKcd(ptr noundef nonnull align 8 dereferenceable(16) %16, ptr noundef @.str.21, double noundef %19)
  ret void
}