; Function Attrs: mustprogress uwtable
define hidden void @_ZNK3sat4ddfw18collect_statisticsER10statistics(ptr noundef nonnull readonly align 8 captures(none) dereferenceable(434) %0, ptr noundef nonnull align 8 dereferenceable(16) %1) local_unnamed_addr #4 align 2 {
  %3 = getelementptr inbounds nuw i8, ptr %0, i64 264
  %4 = load i64, ptr %3, align 8, !tbaa !98
  %5 = uitofp i64 %4 to double
  tail call void @_ZN10statistics6updateEPKcd(ptr noundef nonnull align 8 dereferenceable(16) %1, ptr noundef nonnull @.str.18, double noundef %5)
  %6 = getelementptr inbounds nuw i8, ptr %0, i64 236
  %7 = load i32, ptr %6, align 4, !tbaa !94
  tail call void @_ZN10statistics6updateEPKcj(ptr noundef nonnull align 8 dereferenceable(16) %1, ptr noundef nonnull @.str.19, i32 noundef %7)
  %8 = getelementptr inbounds nuw i8, ptr %0, i64 240
  %9 = load i32, ptr %8, align 8, !tbaa !91
  tail call void @_ZN10statistics6updateEPKcj(ptr noundef nonnull align 8 dereferenceable(16) %1, ptr noundef nonnull @.str.20, i32 noundef %9)
  %10 = getelementptr inbounds nuw i8, ptr %0, i64 280
  %11 = load i64, ptr %10, align 8, !tbaa !124
  %12 = uitofp i64 %11 to double
  tail call void @_ZN10statistics6updateEPKcd(ptr noundef nonnull align 8 dereferenceable(16) %1, ptr noundef nonnull @.str.21, double noundef %12)
  ret void
}